; Function Attrs: nounwind uwtable
define dso_local ptr @get_qos_complete_str(ptr noundef %0, ptr noundef %1) local_unnamed_addr #0 {
  %.not = icmp eq ptr %0, null
  br i1 %.not, label %.sink.split, label %3

3:                                                ; preds = %2
  %4 = tail call i32 @list_count(ptr noundef nonnull %0) #19
  %5 = icmp ne i32 %4, 0
  %6 = icmp ne ptr %1, null
  %or.cond = and i1 %6, %5
  br i1 %or.cond, label %7, label %.sink.split

7:                                                ; preds = %3
  %8 = tail call i32 @list_count(ptr noundef nonnull %1) #19
  %.not17 = icmp eq i32 %8, 0
  br i1 %.not17, label %.sink.split, label %9

9:                                                ; preds = %7
  %10 = tail call ptr @get_qos_name_list(ptr noundef nonnull %0, ptr noundef nonnull %1)
  %11 = tail call ptr @slurm_char_list_to_xstr(ptr noundef %10) #19
  %.not18 = icmp eq ptr %10, null
  br i1 %.not18, label %13, label %12

12:                                               ; preds = %9
  tail call void @list_destroy(ptr noundef nonnull %10) #19
  br label %13

13:                                               ; preds = %12, %9
  %.not19 = icmp eq ptr %11, null
  br i1 %.not19, label %.sink.split, label %15

.sink.split:                                      ; preds = %13, %2, %3, %7
  %14 = tail call ptr @xstrdup(ptr noundef nonnull @.str.11) #19
  br label %15

15:                                               ; preds = %.sink.split, %13
  %.0 = phi ptr [ %11, %13 ], [ %14, %.sink.split ]
  ret ptr %.0
}